target datalayout = "e-m:e-p270:32:32-p271:32:32-p272:64:64-i64:64-i128:128-f80:128-n8:16:32:64-S128"
target triple = "x86_64-pc-linux-gnu"

%struct.crypto_ex_data_st = type { ptr, ptr }
%struct.x509_store_ctx_st = type { ptr, ptr, ptr, ptr, ptr, ptr, ptr, ptr, ptr, ptr, ptr, ptr, ptr, ptr, ptr, ptr, ptr, ptr, i32, i32, ptr, ptr, i32, i32, i32, ptr, ptr, ptr, i32, i32, ptr, %struct.crypto_ex_data_st, ptr, i32, ptr, ptr, ptr }

@.str = private unnamed_addr constant [34 x i8] c"../openssl/crypto/x509/x509_vfy.c\00", align 1
@__func__.X509_verify_cert = private unnamed_addr constant [17 x i8] c"X509_verify_cert\00", align 1

; Function Attrs: nounwind uwtable
define i32 @X509_verify_cert(ptr noundef %0) #0 {
  %2 = alloca i32, align 4
  %3 = alloca ptr, align 8
  store ptr %0, ptr %3, align 8, !tbaa !40
  %4 = load ptr, ptr %3, align 8, !tbaa !40
  %5 = icmp eq ptr %4, null
  br i1 %5, label %6, label %7

6:                                                ; preds = %1
  call void @ERR_new()
  call void @ERR_set_debug(ptr noundef @.str, i32 noundef 288, ptr noundef @__func__.X509_verify_cert)
  call void (i32, i32, ptr, ...) @ERR_set_error(i32 noundef 11, i32 noundef 786690, ptr noundef null)
  store i32 -1, ptr %2, align 4
  br label %20

7:                                                ; preds = %1
  %8 = load ptr, ptr %3, align 8, !tbaa !40
  %9 = getelementptr inbounds nuw %struct.x509_store_ctx_st, ptr %8, i32 0, i32 34
  %10 = load ptr, ptr %9, align 8, !tbaa !42
  %11 = icmp ne ptr %10, null
  br i1 %11, label %12, label %15

12:                                               ; preds = %7
  %13 = load ptr, ptr %3, align 8, !tbaa !40
  %14 = call i32 @x509_verify_rpk(ptr noundef %13)
  br label %18

15:                                               ; preds = %7
  %16 = load ptr, ptr %3, align 8, !tbaa !40
  %17 = call i32 @x509_verify_x509(ptr noundef %16)
  br label %18

18:                                               ; preds = %15, %12
  %19 = phi i32 [ %14, %12 ], [ %17, %15 ]
  store i32 %19, ptr %2, align 4
  br label %20

20:                                               ; preds = %18, %6
  %21 = load i32, ptr %2, align 4
  ret i32 %21
}