; Function Attrs: nounwind uwtable
define i32 @X509_verify_cert(ptr noundef %0) local_unnamed_addr #0 {
  %2 = icmp eq ptr %0, null
  br i1 %2, label %3, label %4

3:                                                ; preds = %1
  tail call void @ERR_new() #10
  tail call void @ERR_set_debug(ptr noundef nonnull @.str, i32 noundef 288, ptr noundef nonnull @__func__.X509_verify_cert) #10
  tail call void (i32, i32, ptr, ...) @ERR_set_error(i32 noundef 11, i32 noundef 786690, ptr noundef null) #10
  br label %11

4:                                                ; preds = %1
  %5 = getelementptr inbounds nuw i8, ptr %0, i64 256
  %6 = load ptr, ptr %5, align 8, !tbaa !35
  %.not = icmp eq ptr %6, null
  br i1 %.not, label %9, label %7

7:                                                ; preds = %4
  %8 = tail call fastcc i32 @x509_verify_rpk(ptr noundef %0)
  br label %11

9:                                                ; preds = %4
  %10 = tail call fastcc i32 @x509_verify_x509(ptr noundef %0)
  br label %11

11:                                               ; preds = %7, %9, %3
  %.0 = phi i32 [ -1, %3 ], [ %8, %7 ], [ %10, %9 ]
  ret i32 %.0
}